target datalayout = "e-m:e-p270:32:32-p271:32:32-p272:64:64-i64:64-i128:128-f80:128-n8:16:32:64-S128"
target triple = "x86_64-pc-linux-gnu"

%struct.Vmem = type { ptr, i64, i64 }
%union.SourceSpan = type { i64 }
%struct.Ast_ = type { %union.SourceSpan, i32, i8, %union.anon.62 }
%union.anon.62 = type { %struct.AstDocDirective_ }
%struct.AstDocDirective_ = type { i8, %union.anon.65 }
%union.anon.65 = type { %struct.anon.66 }
%struct.anon.66 = type { ptr, %union.SourceSpan, i8 }
%struct.Expr_ = type { ptr, %union.SourceSpan, i16, %union.anon.29 }
%union.anon.29 = type { %struct.ExprAnySwitch }
%struct.ExprAnySwitch = type { i8, %union.anon.31 }
%union.anon.31 = type { %struct.anon.32 }
%struct.anon.32 = type { ptr, %union.SourceSpan, ptr }
%struct.SemaContext_ = type { ptr, ptr, ptr, %struct.CallEnv, ptr, %union.SourceSpan, i32, i32, ptr, i32, ptr, i32, i32, ptr, ptr, i32, %struct.anon.85, ptr, ptr, ptr, %struct.DynamicScope_, ptr }
%struct.CallEnv = type { i16, ptr, %union.anon.84 }
%union.anon.84 = type { ptr }
%struct.anon.85 = type { i32, ptr, ptr, ptr, ptr, ptr, ptr, ptr, ptr, ptr, i8, ptr }
%struct.DynamicScope_ = type { i32, i8, i32, i32, i32, i32, i32, ptr, i32 }
%struct.Type_ = type { i32, ptr, ptr, ptr, %union.anon.86, ptr, ptr, %union.anon.88 }
%union.anon.86 = type { ptr }
%union.anon.88 = type { %struct.TypeFunction }
%struct.TypeFunction = type { ptr, ptr, ptr }
%struct.AstDeferStmt = type { i32, i32, i8 }
%struct.AstReturnStmt = type { ptr, i32, i32, ptr }

@ast_arena = external global %struct.Vmem, align 8

; Function Attrs: nounwind uwtable
define internal i32 @astid(ptr noundef %0) #0 {
  %2 = alloca ptr, align 8
  store ptr %0, ptr %2, align 8
  %3 = load ptr, ptr %2, align 8
  %4 = load ptr, ptr @ast_arena, align 8
  %5 = ptrtoint ptr %3 to i64
  %6 = ptrtoint ptr %4 to i64
  %7 = sub i64 %5, %6
  %8 = sdiv exact i64 %7, 48
  %9 = trunc i64 %8 to i32
  ret i32 %9
}

; Function Attrs: nounwind uwtable
define internal ptr @astptr(i32 noundef %0) #0 {
  %2 = alloca i32, align 4
  store i32 %0, ptr %2, align 4
  %3 = load ptr, ptr @ast_arena, align 8
  %4 = load i32, ptr %2, align 4
  %5 = zext i32 %4 to i64
  %6 = getelementptr inbounds %struct.Ast_, ptr %3, i64 %5
  ret ptr %6
}

; Function Attrs: nounwind uwtable
define internal zeroext i1 @sema_defer_by_result(i32 noundef %0, i32 noundef %1) #0 {
  %3 = alloca i1, align 1
  %4 = alloca i32, align 4
  %5 = alloca i32, align 4
  %6 = alloca i32, align 4
  %7 = alloca ptr, align 8
  store i32 %0, ptr %4, align 4
  store i32 %1, ptr %5, align 4
  store i32 0, ptr %6, align 4
  br label %8

8:                                                ; preds = %30, %2
  %9 = load i32, ptr %5, align 4
  %10 = load i32, ptr %4, align 4
  %11 = icmp ne i32 %9, %10
  br i1 %11, label %12, label %35

12:                                               ; preds = %8
  %13 = load i32, ptr %4, align 4
  %14 = call ptr @astptr(i32 noundef %13)
  store ptr %14, ptr %7, align 8
  %15 = load ptr, ptr %7, align 8
  %16 = getelementptr inbounds %struct.Ast_, ptr %15, i32 0, i32 3
  %17 = getelementptr inbounds %struct.AstDeferStmt, ptr %16, i32 0, i32 2
  %18 = load i8, ptr %17, align 8
  %19 = lshr i8 %18, 1
  %20 = and i8 %19, 1
  %21 = trunc i8 %20 to i1
  br i1 %21, label %29, label %22

22:                                               ; preds = %12
  %23 = load ptr, ptr %7, align 8
  %24 = getelementptr inbounds %struct.Ast_, ptr %23, i32 0, i32 3
  %25 = getelementptr inbounds %struct.AstDeferStmt, ptr %24, i32 0, i32 2
  %26 = load i8, ptr %25, align 8
  %27 = and i8 %26, 1
  %28 = trunc i8 %27 to i1
  br i1 %28, label %29, label %30

29:                                               ; preds = %22, %12
  store i1 true, ptr %3, align 1
  br label %36

30:                                               ; preds = %22
  %31 = load ptr, ptr %7, align 8
  %32 = getelementptr inbounds %struct.Ast_, ptr %31, i32 0, i32 3
  %33 = getelementptr inbounds %struct.AstDeferStmt, ptr %32, i32 0, i32 0
  %34 = load i32, ptr %33, align 8
  store i32 %34, ptr %4, align 4
  br label %8, !llvm.loop !48

35:                                               ; preds = %8
  store i1 false, ptr %3, align 1
  br label %36

36:                                               ; preds = %35, %29
  %37 = load i1, ptr %3, align 1
  ret i1 %37
}

; Function Attrs: nounwind uwtable
define internal void @sema_inline_return_defers(ptr noundef %0, ptr noundef %1, i32 noundef %2, i32 noundef %3) #0 {
  %5 = alloca i1, align 1
  %6 = alloca ptr, align 8
  %7 = alloca i32, align 4
  %8 = alloca ptr, align 8
  %9 = alloca ptr, align 8
  %10 = alloca i32, align 4
  %11 = alloca i32, align 4
  store ptr %0, ptr %8, align 8
  store ptr %1, ptr %9, align 8
  store i32 %2, ptr %10, align 4
  store i32 %3, ptr %11, align 4
  %12 = load ptr, ptr %8, align 8
  %13 = load i32, ptr %10, align 4
  %14 = load i32, ptr %11, align 4
  %15 = call i32 @context_get_defers(ptr noundef %12, i32 noundef %13, i32 noundef %14, i1 noundef zeroext true)
  %16 = load ptr, ptr %9, align 8
  %17 = getelementptr inbounds %struct.Ast_, ptr %16, i32 0, i32 3
  %18 = getelementptr inbounds %struct.AstReturnStmt, ptr %17, i32 0, i32 1
  store i32 %15, ptr %18, align 8
  %19 = load ptr, ptr %9, align 8
  %20 = getelementptr inbounds %struct.Ast_, ptr %19, i32 0, i32 3
  %21 = getelementptr inbounds %struct.AstReturnStmt, ptr %20, i32 0, i32 0
  %22 = load ptr, ptr %21, align 8
  %23 = icmp ne ptr %22, null
  br i1 %23, label %24, label %71

24:                                               ; preds = %4
  %25 = load ptr, ptr %9, align 8
  %26 = getelementptr inbounds %struct.Ast_, ptr %25, i32 0, i32 3
  %27 = getelementptr inbounds %struct.AstReturnStmt, ptr %26, i32 0, i32 0
  %28 = load ptr, ptr %27, align 8
  %29 = getelementptr inbounds %struct.Expr_, ptr %28, i32 0, i32 0
  %30 = load ptr, ptr %29, align 8
  store ptr %30, ptr %6, align 8
  %31 = load ptr, ptr %6, align 8
  %32 = icmp ne ptr %31, null
  br i1 %32, label %34, label %33

33:                                               ; preds = %24
  store i1 false, ptr %5, align 1
  br label %47

34:                                               ; preds = %24
  %35 = load ptr, ptr %6, align 8
  %36 = load i32, ptr %35, align 8
  store i32 %36, ptr %7, align 4
  %37 = load i32, ptr %7, align 4
  %38 = icmp eq i32 %37, 31
  br i1 %38, label %39, label %44

39:                                               ; preds = %34
  %40 = load ptr, ptr %6, align 8
  %41 = getelementptr inbounds %struct.Type_, ptr %40, i32 0, i32 1
  %42 = load ptr, ptr %41, align 8
  %43 = load i32, ptr %42, align 8
  store i32 %43, ptr %7, align 4
  br label %44

44:                                               ; preds = %39, %34
  %45 = load i32, ptr %7, align 4
  %46 = icmp eq i32 %45, 40
  store i1 %46, ptr %5, align 1
  br label %47

47:                                               ; preds = %44, %33
  %48 = load i1, ptr %5, align 1
  br i1 %48, label %49, label %71

49:                                               ; preds = %47
  %50 = load ptr, ptr %8, align 8
  %51 = getelementptr inbounds %struct.SemaContext_, ptr %50, i32 0, i32 20
  %52 = getelementptr inbounds %struct.DynamicScope_, ptr %51, i32 0, i32 5
  %53 = load i32, ptr %52, align 4
  %54 = load ptr, ptr %8, align 8
  %55 = getelementptr inbounds %struct.SemaContext_, ptr %54, i32 0, i32 12
  %56 = load i32, ptr %55, align 4
  %57 = call zeroext i1 @sema_defer_by_result(i32 noundef %53, i32 noundef %56)
  br i1 %57, label %58, label %71

58:                                               ; preds = %49
  %59 = load ptr, ptr %8, align 8
  %60 = load ptr, ptr %8, align 8
  %61 = getelementptr inbounds %struct.SemaContext_, ptr %60, i32 0, i32 20
  %62 = getelementptr inbounds %struct.DynamicScope_, ptr %61, i32 0, i32 5
  %63 = load i32, ptr %62, align 4
  %64 = load ptr, ptr %8, align 8
  %65 = getelementptr inbounds %struct.SemaContext_, ptr %64, i32 0, i32 12
  %66 = load i32, ptr %65, align 4
  %67 = call i32 @context_get_defers(ptr noundef %59, i32 noundef %63, i32 noundef %66, i1 noundef zeroext false)
  %68 = load ptr, ptr %9, align 8
  %69 = getelementptr inbounds %struct.Ast_, ptr %68, i32 0, i32 3
  %70 = getelementptr inbounds %struct.AstReturnStmt, ptr %69, i32 0, i32 2
  store i32 %67, ptr %70, align 4
  br label %91

71:                                               ; preds = %49, %47, %4
  %72 = load ptr, ptr %9, align 8
  %73 = getelementptr inbounds %struct.Ast_, ptr %72, i32 0, i32 3
  %74 = getelementptr inbounds %struct.AstReturnStmt, ptr %73, i32 0, i32 1
  %75 = load i32, ptr %74, align 8
  %76 = icmp ne i32 %75, 0
  br i1 %76, label %77, label %85

77:                                               ; preds = %71
  %78 = load ptr, ptr %9, align 8
  %79 = getelementptr inbounds %struct.Ast_, ptr %78, i32 0, i32 3
  %80 = getelementptr inbounds %struct.AstReturnStmt, ptr %79, i32 0, i32 1
  %81 = load i32, ptr %80, align 8
  %82 = call ptr @astptr(i32 noundef %81)
  %83 = call ptr @copy_ast_defer(ptr noundef %82)
  %84 = call i32 @astid(ptr noundef %83)
  br label %86

85:                                               ; preds = %71
  br label %86

86:                                               ; preds = %85, %77
  %87 = phi i32 [ %84, %77 ], [ 0, %85 ]
  %88 = load ptr, ptr %9, align 8
  %89 = getelementptr inbounds %struct.Ast_, ptr %88, i32 0, i32 3
  %90 = getelementptr inbounds %struct.AstReturnStmt, ptr %89, i32 0, i32 2
  store i32 %87, ptr %90, align 4
  br label %91

91:                                               ; preds = %86, %58
  ret void
}