; Function Attrs: nounwind uwtable
define internal fastcc void @sema_inline_return_defers(ptr noundef %0, ptr nocapture noundef %1, i32 noundef %2, i32 noundef %3) unnamed_addr #0 {
  %5 = tail call i32 @context_get_defers(ptr noundef %0, i32 noundef %2, i32 noundef %3, i1 noundef zeroext true) #9
  %6 = getelementptr inbounds i8, ptr %1, i64 16
  %7 = getelementptr inbounds i8, ptr %1, i64 24
  store i32 %5, ptr %7, align 8
  %8 = load ptr, ptr %6, align 8
  %.not = icmp eq ptr %8, null
  br i1 %.not, label %.critedge, label %9

9:                                                ; preds = %4
  %10 = load ptr, ptr %8, align 8
  %.not25 = icmp eq ptr %10, null
  br i1 %.not25, label %.critedge, label %11

11:                                               ; preds = %9
  %12 = load i32, ptr %10, align 8
  %13 = icmp eq i32 %12, 31
  br i1 %13, label %14, label %18

14:                                               ; preds = %11
  %15 = getelementptr inbounds i8, ptr %10, i64 8
  %16 = load ptr, ptr %15, align 8
  %17 = load i32, ptr %16, align 8
  br label %18

18:                                               ; preds = %14, %11
  %.020 = phi i32 [ %17, %14 ], [ %12, %11 ]
  %19 = icmp eq i32 %.020, 40
  br i1 %19, label %20, label %.critedge

20:                                               ; preds = %18
  %21 = getelementptr inbounds i8, ptr %0, i64 268
  %22 = load i32, ptr %21, align 4
  %23 = getelementptr inbounds i8, ptr %0, i64 100
  %24 = load i32, ptr %23, align 4
  %.not8.not.i = icmp eq i32 %22, %24
  br i1 %.not8.not.i, label %.critedge, label %.lr.ph.i

.lr.ph.i:                                         ; preds = %20
  %25 = load ptr, ptr @ast_arena, align 8
  br label %26

26:                                               ; preds = %35, %.lr.ph.i
  %.069.i = phi i32 [ %22, %.lr.ph.i ], [ %36, %35 ]
  %27 = zext i32 %.069.i to i64
  %28 = getelementptr inbounds %struct.Ast_, ptr %25, i64 %27
  %29 = getelementptr inbounds i8, ptr %28, i64 16
  %30 = getelementptr inbounds i8, ptr %28, i64 24
  %31 = load i8, ptr %30, align 8
  %32 = and i8 %31, 2
  %.not7.i = icmp eq i8 %32, 0
  br i1 %.not7.i, label %33, label %37

33:                                               ; preds = %26
  %34 = trunc i8 %31 to i1
  br i1 %34, label %37, label %35

35:                                               ; preds = %33
  %36 = load i32, ptr %29, align 8
  %.not.not.i = icmp eq i32 %36, %24
  br i1 %.not.not.i, label %.critedge, label %26, !llvm.loop !56

37:                                               ; preds = %26, %33
  %38 = tail call i32 @context_get_defers(ptr noundef %0, i32 noundef %22, i32 noundef %24, i1 noundef zeroext false) #9
  br label %50

.critedge:                                        ; preds = %35, %20, %9, %18, %4
  %.not26 = icmp eq i32 %5, 0
  br i1 %.not26, label %50, label %39

39:                                               ; preds = %.critedge
  %40 = load ptr, ptr @ast_arena, align 8
  %41 = zext i32 %5 to i64
  %42 = getelementptr inbounds %struct.Ast_, ptr %40, i64 %41
  %43 = tail call ptr @copy_ast_defer(ptr noundef nonnull %42) #9
  %44 = load ptr, ptr @ast_arena, align 8
  %45 = ptrtoint ptr %43 to i64
  %46 = ptrtoint ptr %44 to i64
  %47 = sub i64 %45, %46
  %48 = sdiv exact i64 %47, 48
  %49 = trunc i64 %48 to i32
  br label %50

50:                                               ; preds = %39, %.critedge, %37
  %.sink = phi i32 [ %38, %37 ], [ %49, %39 ], [ 0, %.critedge ]
  %51 = getelementptr inbounds i8, ptr %1, i64 28
  store i32 %.sink, ptr %51, align 4
  ret void
}